target datalayout = "e-m:e-p270:32:32-p271:32:32-p272:64:64-i64:64-i128:128-f80:128-n8:16:32:64-S128"
target triple = "x86_64-pc-linux-gnu"

%struct.FxuHeapSingle = type { ptr, i32, i32, i32 }

; Function Attrs: nounwind uwtable
define void @Fxu_HeapSingleStop(ptr noundef %0) #0 {
  %2 = alloca ptr, align 8
  %3 = alloca i32, align 4
  store ptr %0, ptr %2, align 8, !tbaa !3
  call void @llvm.lifetime.start.p0(i64 4, ptr %3) #6
  store i32 0, ptr %3, align 4, !tbaa !16
  %4 = load ptr, ptr %2, align 8, !tbaa !3
  %5 = getelementptr inbounds nuw %struct.FxuHeapSingle, ptr %4, i32 0, i32 0
  %6 = load ptr, ptr %5, align 8, !tbaa !13
  %7 = icmp ne ptr %6, null
  br i1 %7, label %8, label %14

8:                                                ; preds = %1
  %9 = load ptr, ptr %2, align 8, !tbaa !3
  %10 = getelementptr inbounds nuw %struct.FxuHeapSingle, ptr %9, i32 0, i32 0
  %11 = load ptr, ptr %10, align 8, !tbaa !13
  call void @free(ptr noundef %11) #6
  %12 = load ptr, ptr %2, align 8, !tbaa !3
  %13 = getelementptr inbounds nuw %struct.FxuHeapSingle, ptr %12, i32 0, i32 0
  store ptr null, ptr %13, align 8, !tbaa !13
  br label %15

14:                                               ; preds = %1
  br label %15

15:                                               ; preds = %14, %8
  store i32 1, ptr %3, align 4, !tbaa !16
  %16 = load ptr, ptr %2, align 8, !tbaa !3
  %17 = icmp ne ptr %16, null
  br i1 %17, label %18, label %20

18:                                               ; preds = %15
  %19 = load ptr, ptr %2, align 8, !tbaa !3
  call void @free(ptr noundef %19) #6
  store ptr null, ptr %2, align 8, !tbaa !3
  br label %21

20:                                               ; preds = %15
  br label %21

21:                                               ; preds = %20, %18
  call void @llvm.lifetime.end.p0(i64 4, ptr %3) #6
  ret void
}