; Function Attrs: mustprogress nounwind willreturn uwtable
define void @Fxu_HeapSingleStop(ptr noundef captures(none) %0) local_unnamed_addr #2 {
  %2 = load ptr, ptr %0, align 8, !tbaa !10
  %.not = icmp eq ptr %2, null
  br i1 %.not, label %4, label %3

3:                                                ; preds = %1
  tail call void @free(ptr noundef nonnull %2) #15
  br label %4

4:                                                ; preds = %3, %1
  tail call void @free(ptr noundef nonnull %0) #15
  ret void
}